target datalayout = "e-m:e-p270:32:32-p271:32:32-p272:64:64-i64:64-i128:128-f80:128-n8:16:32:64-S128"
target triple = "x86_64-pc-linux-gnu"

%"class.pxrInternal_v0_24__pxrReserved__::SdfPath" = type { %"struct.pxrInternal_v0_24__pxrReserved__::Sdf_PathNodeHandleImpl", %"struct.pxrInternal_v0_24__pxrReserved__::Sdf_PathNodeHandleImpl.8" }
%"struct.pxrInternal_v0_24__pxrReserved__::Sdf_PathNodeHandleImpl" = type { %"struct.pxrInternal_v0_24__pxrReserved__::Sdf_Pool<pxrInternal_v0_24__pxrReserved__::Sdf_PathPrimTag, 24, 8>::Handle" }
%"struct.pxrInternal_v0_24__pxrReserved__::Sdf_Pool<pxrInternal_v0_24__pxrReserved__::Sdf_PathPrimTag, 24, 8>::Handle" = type { i32 }
%"struct.pxrInternal_v0_24__pxrReserved__::Sdf_PathNodeHandleImpl.8" = type { %"struct.pxrInternal_v0_24__pxrReserved__::Sdf_Pool<pxrInternal_v0_24__pxrReserved__::Sdf_PathPropTag, 24, 8>::Handle" }
%"struct.pxrInternal_v0_24__pxrReserved__::Sdf_Pool<pxrInternal_v0_24__pxrReserved__::Sdf_PathPropTag, 24, 8>::Handle" = type { i32 }
%"class.pxrInternal_v0_24__pxrReserved__::SdfNamespaceEdit_Namespace::_Node" = type { %"class.std::variant", ptr, %"class.std::unique_ptr", %"class.pxrInternal_v0_24__pxrReserved__::SdfPath" }
%"class.std::variant" = type { %"struct.std::__detail::__variant::_Variant_base.base", [7 x i8] }
%"struct.std::__detail::__variant::_Variant_base.base" = type { %"struct.std::__detail::__variant::_Move_assign_base.base" }
%"struct.std::__detail::__variant::_Move_assign_base.base" = type { %"struct.std::__detail::__variant::_Copy_assign_base.base" }
%"struct.std::__detail::__variant::_Copy_assign_base.base" = type { %"struct.std::__detail::__variant::_Move_ctor_base.base" }
%"struct.std::__detail::__variant::_Move_ctor_base.base" = type { %"struct.std::__detail::__variant::_Copy_ctor_base.base" }
%"struct.std::__detail::__variant::_Copy_ctor_base.base" = type { %"struct.std::__detail::__variant::_Variant_storage.base" }
%"struct.std::__detail::__variant::_Variant_storage.base" = type { %"union.std::__detail::__variant::_Variadic_union", i8 }
%"union.std::__detail::__variant::_Variadic_union" = type { %"union.std::__detail::__variant::_Variadic_union.0" }
%"union.std::__detail::__variant::_Variadic_union.0" = type { %"struct.std::__detail::__variant::_Uninitialized.1" }
%"struct.std::__detail::__variant::_Uninitialized.1" = type { %"struct.__gnu_cxx::__aligned_membuf" }
%"struct.__gnu_cxx::__aligned_membuf" = type { [8 x i8] }
%"class.std::unique_ptr" = type { %"struct.std::__uniq_ptr_data" }
%"struct.std::__uniq_ptr_data" = type { %"class.std::__uniq_ptr_impl" }
%"class.std::__uniq_ptr_impl" = type { %"class.std::tuple" }
%"class.std::tuple" = type { %"struct.std::_Tuple_impl" }
%"struct.std::_Tuple_impl" = type { %"struct.std::_Head_base.7" }
%"struct.std::_Head_base.7" = type { ptr }
%"struct.std::_Rb_tree_header" = type { %"struct.std::_Rb_tree_node_base", i64 }
%"struct.std::_Rb_tree_node_base" = type { i32, ptr, ptr, ptr }
%"class.pxrInternal_v0_24__pxrReserved__::TfCallContext" = type <{ ptr, ptr, i64, ptr, i8, [7 x i8] }>
%"class.pxrInternal_v0_24__pxrReserved__::SdfNamespaceEdit_Namespace" = type { i8, %"class.pxrInternal_v0_24__pxrReserved__::SdfNamespaceEdit_Namespace::_Node", %"class.std::set.20", %"class.std::map" }
%"class.std::set.20" = type { %"class.std::_Rb_tree.21" }
%"class.std::_Rb_tree.21" = type { %"struct.std::_Rb_tree<pxrInternal_v0_24__pxrReserved__::SdfPath, pxrInternal_v0_24__pxrReserved__::SdfPath, std::_Identity<pxrInternal_v0_24__pxrReserved__::SdfPath>, std::less<pxrInternal_v0_24__pxrReserved__::SdfPath>>::_Rb_tree_impl" }
%"struct.std::_Rb_tree<pxrInternal_v0_24__pxrReserved__::SdfPath, pxrInternal_v0_24__pxrReserved__::SdfPath, std::_Identity<pxrInternal_v0_24__pxrReserved__::SdfPath>, std::less<pxrInternal_v0_24__pxrReserved__::SdfPath>>::_Rb_tree_impl" = type { [8 x i8], %"struct.std::_Rb_tree_header" }
%"class.std::map" = type { %"class.std::_Rb_tree.26" }
%"class.std::_Rb_tree.26" = type { %"struct.std::_Rb_tree<pxrInternal_v0_24__pxrReserved__::SdfPath, std::pair<const pxrInternal_v0_24__pxrReserved__::SdfPath, std::set<pxrInternal_v0_24__pxrReserved__::SdfNamespaceEdit_Namespace::_Node *>>, std::_Select1st<std::pair<const pxrInternal_v0_24__pxrReserved__::SdfPath, std::set<pxrInternal_v0_24__pxrReserved__::SdfNamespaceEdit_Namespace::_Node *>>>, std::less<pxrInternal_v0_24__pxrReserved__::SdfPath>>::_Rb_tree_impl" }
%"struct.std::_Rb_tree<pxrInternal_v0_24__pxrReserved__::SdfPath, std::pair<const pxrInternal_v0_24__pxrReserved__::SdfPath, std::set<pxrInternal_v0_24__pxrReserved__::SdfNamespaceEdit_Namespace::_Node *>>, std::_Select1st<std::pair<const pxrInternal_v0_24__pxrReserved__::SdfPath, std::set<pxrInternal_v0_24__pxrReserved__::SdfNamespaceEdit_Namespace::_Node *>>>, std::less<pxrInternal_v0_24__pxrReserved__::SdfPath>>::_Rb_tree_impl" = type { [8 x i8], %"struct.std::_Rb_tree_header" }
%"struct.std::_Rb_tree_const_iterator.48" = type { ptr }
%"struct.std::_Rb_tree_iterator.131" = type { ptr }
%"struct.std::pair.135" = type { %"struct.std::_Rb_tree_iterator.131", %"struct.std::_Rb_tree_iterator.131" }

@.str.2 = private unnamed_addr constant [123 x i8] c"generated/home/dtcxzyw/WorkSpace/Projects/compilers/llvm-opt-benchmark/bench/openusd/OpenUSD/pxr/usd/sdf/namespaceEdit.cpp\00", align 1
@.str.22 = private unnamed_addr constant [36 x i8] c"path != SdfPath::AbsoluteRootPath()\00", align 1
@__func__._ZN32pxrInternal_v0_24__pxrReserved__26SdfNamespaceEdit_Namespace16_RemoveDeadspaceERKNS_7SdfPathE = private unnamed_addr constant [17 x i8] c"_RemoveDeadspace\00", align 1
@__PRETTY_FUNCTION__._ZN32pxrInternal_v0_24__pxrReserved__26SdfNamespaceEdit_Namespace16_RemoveDeadspaceERKNS_7SdfPathE = private unnamed_addr constant [101 x i8] c"void pxrInternal_v0_24__pxrReserved__::SdfNamespaceEdit_Namespace::_RemoveDeadspace(const SdfPath &)\00", align 1

; Function Attrs: mustprogress nounwind uwtable
define linkonce_odr void @_ZNSt23_Rb_tree_const_iteratorIN32pxrInternal_v0_24__pxrReserved__7SdfPathEEC2ERKSt17_Rb_tree_iteratorIS1_E(ptr noundef nonnull align 8 dereferenceable(8) %0, ptr noundef nonnull align 8 dereferenceable(8) %1) unnamed_addr #2 comdat align 2 {
  %3 = alloca ptr, align 8
  %4 = alloca ptr, align 8
  store ptr %0, ptr %3, align 8
  store ptr %1, ptr %4, align 8
  %5 = load ptr, ptr %3, align 8
  %6 = getelementptr inbounds nuw %"struct.std::_Rb_tree_const_iterator.48", ptr %5, i32 0, i32 0
  %7 = load ptr, ptr %4, align 8
  %8 = getelementptr inbounds nuw %"struct.std::_Rb_tree_iterator.131", ptr %7, i32 0, i32 0
  %9 = load ptr, ptr %8, align 8
  store ptr %9, ptr %6, align 8
  ret void
}

; Function Attrs: mustprogress nounwind uwtable
define linkonce_odr noundef i64 @_ZNKSt8_Rb_treeIN32pxrInternal_v0_24__pxrReserved__7SdfPathES1_St9_IdentityIS1_ESt4lessIS1_ESaIS1_EE4sizeEv(ptr noundef nonnull align 8 dereferenceable(48) %0) #2 comdat align 2 {
  %2 = alloca ptr, align 8
  store ptr %0, ptr %2, align 8
  %3 = load ptr, ptr %2, align 8
  %4 = getelementptr inbounds nuw %"class.std::_Rb_tree.21", ptr %3, i32 0, i32 0
  %5 = getelementptr inbounds i8, ptr %4, i64 8
  %6 = getelementptr inbounds nuw %"struct.std::_Rb_tree_header", ptr %5, i32 0, i32 1
  %7 = load i64, ptr %6, align 8
  ret i64 %7
}

; Function Attrs: mustprogress nounwind uwtable
define linkonce_odr noundef i64 @_ZNK32pxrInternal_v0_24__pxrReserved__7SdfPath6_AsIntEv(ptr noundef nonnull align 4 dereferenceable(8) %0) #2 comdat align 2 {
  %2 = alloca ptr, align 8
  %3 = alloca i64, align 8
  store ptr %0, ptr %2, align 8
  %4 = load ptr, ptr %2, align 8
  call void @llvm.memcpy.p0.p0.i64(ptr align 8 %3, ptr align 4 %4, i64 8, i1 false)
  %5 = load i64, ptr %3, align 8
  ret i64 %5
}

; Function Attrs: mustprogress uwtable
define linkonce_odr noundef i64 @_ZNSt8_Rb_treeIN32pxrInternal_v0_24__pxrReserved__7SdfPathES1_St9_IdentityIS1_ESt4lessIS1_ESaIS1_EE5eraseERKS1_(ptr noundef nonnull align 8 dereferenceable(48) %0, ptr noundef nonnull align 4 dereferenceable(8) %1) #0 comdat align 2 {
  %3 = alloca ptr, align 8
  %4 = alloca ptr, align 8
  %5 = alloca %"struct.std::pair.135", align 8
  %6 = alloca i64, align 8
  %7 = alloca %"struct.std::_Rb_tree_const_iterator.48", align 8
  %8 = alloca %"struct.std::_Rb_tree_const_iterator.48", align 8
  store ptr %0, ptr %3, align 8
  store ptr %1, ptr %4, align 8
  %9 = load ptr, ptr %3, align 8
  %10 = load ptr, ptr %4, align 8
  %11 = call { ptr, ptr } @_ZNSt8_Rb_treeIN32pxrInternal_v0_24__pxrReserved__7SdfPathES1_St9_IdentityIS1_ESt4lessIS1_ESaIS1_EE11equal_rangeERKS1_(ptr noundef nonnull align 8 dereferenceable(48) %9, ptr noundef nonnull align 4 dereferenceable(8) %10)
  %12 = getelementptr inbounds nuw { ptr, ptr }, ptr %5, i32 0, i32 0
  %13 = extractvalue { ptr, ptr } %11, 0
  store ptr %13, ptr %12, align 8
  %14 = getelementptr inbounds nuw { ptr, ptr }, ptr %5, i32 0, i32 1
  %15 = extractvalue { ptr, ptr } %11, 1
  store ptr %15, ptr %14, align 8
  %16 = call noundef i64 @_ZNKSt8_Rb_treeIN32pxrInternal_v0_24__pxrReserved__7SdfPathES1_St9_IdentityIS1_ESt4lessIS1_ESaIS1_EE4sizeEv(ptr noundef nonnull align 8 dereferenceable(48) %9) #8
  store i64 %16, ptr %6, align 8
  %17 = getelementptr inbounds nuw %"struct.std::pair.135", ptr %5, i32 0, i32 0
  call void @_ZNSt23_Rb_tree_const_iteratorIN32pxrInternal_v0_24__pxrReserved__7SdfPathEEC2ERKSt17_Rb_tree_iteratorIS1_E(ptr noundef nonnull align 8 dereferenceable(8) %7, ptr noundef nonnull align 8 dereferenceable(8) %17) #8
  %18 = getelementptr inbounds nuw %"struct.std::pair.135", ptr %5, i32 0, i32 1
  call void @_ZNSt23_Rb_tree_const_iteratorIN32pxrInternal_v0_24__pxrReserved__7SdfPathEEC2ERKSt17_Rb_tree_iteratorIS1_E(ptr noundef nonnull align 8 dereferenceable(8) %8, ptr noundef nonnull align 8 dereferenceable(8) %18) #8
  %19 = getelementptr inbounds nuw %"struct.std::_Rb_tree_const_iterator.48", ptr %7, i32 0, i32 0
  %20 = load ptr, ptr %19, align 8
  %21 = getelementptr inbounds nuw %"struct.std::_Rb_tree_const_iterator.48", ptr %8, i32 0, i32 0
  %22 = load ptr, ptr %21, align 8
  call void @_ZNSt8_Rb_treeIN32pxrInternal_v0_24__pxrReserved__7SdfPathES1_St9_IdentityIS1_ESt4lessIS1_ESaIS1_EE12_M_erase_auxESt23_Rb_tree_const_iteratorIS1_ES9_(ptr noundef nonnull align 8 dereferenceable(48) %9, ptr %20, ptr %22)
  %23 = load i64, ptr %6, align 8
  %24 = call noundef i64 @_ZNKSt8_Rb_treeIN32pxrInternal_v0_24__pxrReserved__7SdfPathES1_St9_IdentityIS1_ESt4lessIS1_ESaIS1_EE4sizeEv(ptr noundef nonnull align 8 dereferenceable(48) %9) #8
  %25 = sub i64 %23, %24
  ret i64 %25
}

; Function Attrs: mustprogress uwtable
define linkonce_odr noundef zeroext i1 @_ZNK32pxrInternal_v0_24__pxrReserved__7SdfPatheqERKS0_(ptr noundef nonnull align 4 dereferenceable(8) %0, ptr noundef nonnull align 4 dereferenceable(8) %1) #0 comdat align 2 {
  %3 = alloca ptr, align 8
  %4 = alloca ptr, align 8
  store ptr %0, ptr %3, align 8
  store ptr %1, ptr %4, align 8
  %5 = load ptr, ptr %3, align 8
  %6 = call noundef i64 @_ZNK32pxrInternal_v0_24__pxrReserved__7SdfPath6_AsIntEv(ptr noundef nonnull align 4 dereferenceable(8) %5)
  %7 = load ptr, ptr %4, align 8
  %8 = call noundef i64 @_ZNK32pxrInternal_v0_24__pxrReserved__7SdfPath6_AsIntEv(ptr noundef nonnull align 4 dereferenceable(8) %7)
  %9 = icmp eq i64 %6, %8
  ret i1 %9
}

; Function Attrs: mustprogress uwtable
define linkonce_odr noundef i64 @_ZNSt3setIN32pxrInternal_v0_24__pxrReserved__7SdfPathESt4lessIS1_ESaIS1_EE5eraseERKS1_(ptr noundef nonnull align 8 dereferenceable(48) %0, ptr noundef nonnull align 4 dereferenceable(8) %1) #0 comdat align 2 {
  %3 = alloca ptr, align 8
  %4 = alloca ptr, align 8
  store ptr %0, ptr %3, align 8
  store ptr %1, ptr %4, align 8
  %5 = load ptr, ptr %3, align 8
  %6 = getelementptr inbounds nuw %"class.std::set.20", ptr %5, i32 0, i32 0
  %7 = load ptr, ptr %4, align 8
  %8 = call noundef i64 @_ZNSt8_Rb_treeIN32pxrInternal_v0_24__pxrReserved__7SdfPathES1_St9_IdentityIS1_ESt4lessIS1_ESaIS1_EE5eraseERKS1_(ptr noundef nonnull align 8 dereferenceable(48) %6, ptr noundef nonnull align 4 dereferenceable(8) %7)
  ret i64 %8
}

; Function Attrs: mustprogress nounwind uwtable
define linkonce_odr noundef ptr @_ZN32pxrInternal_v0_24__pxrReserved__21Tf_VerifyStringFormatEv() #2 comdat {
  ret ptr null
}

; Function Attrs: mustprogress nounwind uwtable
define linkonce_odr void @_ZN32pxrInternal_v0_24__pxrReserved__13TfCallContextC2EPKcS2_mS2_(ptr noundef nonnull align 8 dereferenceable(33) %0, ptr noundef %1, ptr noundef %2, i64 noundef %3, ptr noundef %4) unnamed_addr #2 comdat align 2 {
  %6 = alloca ptr, align 8
  %7 = alloca ptr, align 8
  %8 = alloca ptr, align 8
  %9 = alloca i64, align 8
  %10 = alloca ptr, align 8
  store ptr %0, ptr %6, align 8
  store ptr %1, ptr %7, align 8
  store ptr %2, ptr %8, align 8
  store i64 %3, ptr %9, align 8
  store ptr %4, ptr %10, align 8
  %11 = load ptr, ptr %6, align 8
  %12 = getelementptr inbounds nuw %"class.pxrInternal_v0_24__pxrReserved__::TfCallContext", ptr %11, i32 0, i32 0
  %13 = load ptr, ptr %7, align 8
  store ptr %13, ptr %12, align 8
  %14 = getelementptr inbounds nuw %"class.pxrInternal_v0_24__pxrReserved__::TfCallContext", ptr %11, i32 0, i32 1
  %15 = load ptr, ptr %8, align 8
  store ptr %15, ptr %14, align 8
  %16 = getelementptr inbounds nuw %"class.pxrInternal_v0_24__pxrReserved__::TfCallContext", ptr %11, i32 0, i32 2
  %17 = load i64, ptr %9, align 8
  store i64 %17, ptr %16, align 8
  %18 = getelementptr inbounds nuw %"class.pxrInternal_v0_24__pxrReserved__::TfCallContext", ptr %11, i32 0, i32 3
  %19 = load ptr, ptr %10, align 8
  store ptr %19, ptr %18, align 8
  %20 = getelementptr inbounds nuw %"class.pxrInternal_v0_24__pxrReserved__::TfCallContext", ptr %11, i32 0, i32 4
  store i8 0, ptr %20, align 8
  ret void
}

; Function Attrs: mustprogress uwtable
define linkonce_odr noundef zeroext i1 @_ZNK32pxrInternal_v0_24__pxrReserved__7SdfPathneERKS0_(ptr noundef nonnull align 4 dereferenceable(8) %0, ptr noundef nonnull align 4 dereferenceable(8) %1) #0 comdat align 2 {
  %3 = alloca ptr, align 8
  %4 = alloca ptr, align 8
  store ptr %0, ptr %3, align 8
  store ptr %1, ptr %4, align 8
  %5 = load ptr, ptr %3, align 8
  %6 = load ptr, ptr %4, align 8
  %7 = call noundef zeroext i1 @_ZNK32pxrInternal_v0_24__pxrReserved__7SdfPatheqERKS0_(ptr noundef nonnull align 4 dereferenceable(8) %5, ptr noundef nonnull align 4 dereferenceable(8) %6)
  %8 = xor i1 %7, true
  ret i1 %8
}

; Function Attrs: mustprogress uwtable
define void @_ZN32pxrInternal_v0_24__pxrReserved__26SdfNamespaceEdit_Namespace16_RemoveDeadspaceERKNS_7SdfPathE(ptr noundef nonnull align 8 dereferenceable(144) %0, ptr noundef nonnull align 4 dereferenceable(8) %1) #0 align 2 {
  %3 = alloca ptr, align 8
  %4 = alloca ptr, align 8
  %5 = alloca %"class.pxrInternal_v0_24__pxrReserved__::TfCallContext", align 8
  store ptr %0, ptr %3, align 8
  store ptr %1, ptr %4, align 8
  %6 = load ptr, ptr %3, align 8
  %7 = load ptr, ptr %4, align 8
  %8 = call noundef nonnull align 4 dereferenceable(8) ptr @_ZN32pxrInternal_v0_24__pxrReserved__7SdfPath16AbsoluteRootPathEv()
  %9 = call noundef zeroext i1 @_ZNK32pxrInternal_v0_24__pxrReserved__7SdfPathneERKS0_(ptr noundef nonnull align 4 dereferenceable(8) %7, ptr noundef nonnull align 4 dereferenceable(8) %8)
  br i1 %9, label %10, label %11

10:                                               ; preds = %2
  br label %14

11:                                               ; preds = %2
  call void @_ZN32pxrInternal_v0_24__pxrReserved__13TfCallContextC2EPKcS2_mS2_(ptr noundef nonnull align 8 dereferenceable(33) %5, ptr noundef @.str.2, ptr noundef @__func__._ZN32pxrInternal_v0_24__pxrReserved__26SdfNamespaceEdit_Namespace16_RemoveDeadspaceERKNS_7SdfPathE, i64 noundef 639, ptr noundef @__PRETTY_FUNCTION__._ZN32pxrInternal_v0_24__pxrReserved__26SdfNamespaceEdit_Namespace16_RemoveDeadspaceERKNS_7SdfPathE)
  %12 = call noundef ptr @_ZN32pxrInternal_v0_24__pxrReserved__21Tf_VerifyStringFormatEv()
  %13 = call noundef zeroext i1 @_ZN32pxrInternal_v0_24__pxrReserved__21Tf_FailedVerifyHelperERKNS_13TfCallContextEPKcS4_(ptr noundef nonnull align 8 dereferenceable(33) %5, ptr noundef @.str.22, ptr noundef %12)
  br label %14

14:                                               ; preds = %11, %10
  %15 = phi i1 [ true, %10 ], [ %13, %11 ]
  %16 = xor i1 %15, true
  br i1 %16, label %17, label %18

17:                                               ; preds = %14
  br label %22

18:                                               ; preds = %14
  %19 = getelementptr inbounds nuw %"class.pxrInternal_v0_24__pxrReserved__::SdfNamespaceEdit_Namespace", ptr %6, i32 0, i32 2
  %20 = load ptr, ptr %4, align 8
  %21 = call noundef i64 @_ZNSt3setIN32pxrInternal_v0_24__pxrReserved__7SdfPathESt4lessIS1_ESaIS1_EE5eraseERKS1_(ptr noundef nonnull align 8 dereferenceable(48) %19, ptr noundef nonnull align 4 dereferenceable(8) %20)
  br label %22

22:                                               ; preds = %18, %17
  ret void
}